; Function Attrs: mustprogress uwtable
define void @_ZN6icu_7523ensureLanguageFactoriesER10UErrorCode(ptr noundef nonnull align 4 dereferenceable(4) %status) local_unnamed_addr #1 personality ptr @__gxx_personality_v0 {
entry:
  %0 = load i32, ptr %status, align 4
  %cmp.i.i = icmp slt i32 %0, 1
  br i1 %cmp.i.i, label %if.end.i, label %_ZN6icu_7513umtx_initOnceERNS_9UInitOnceEPFvR10UErrorCodeES3_.exit

if.end.i:                                         ; preds = %entry
  %1 = load atomic i32, ptr @_ZL31gLanguageBreakFactoriesInitOnce acquire, align 4
  %cmp.not.i = icmp eq i32 %1, 2
  br i1 %cmp.not.i, label %if.else.i, label %land.lhs.true.i

land.lhs.true.i:                                  ; preds = %if.end.i
  %call2.i = tail call noundef signext i8 @_ZN6icu_7520umtx_initImplPreInitERNS_9UInitOnceE(ptr noundef nonnull align 4 dereferenceable(8) @_ZL31gLanguageBreakFactoriesInitOnce)
  %tobool3.not.i = icmp eq i8 %call2.i, 0
  br i1 %tobool3.not.i, label %if.else.i, label %if.then4.i

if.then4.i:                                       ; preds = %land.lhs.true.i
  %call.i = tail call noundef ptr @_ZN6icu_757UMemorynwEm(i64 noundef 40) #15
  %new.isnull.i = icmp eq ptr %call.i, null
  br i1 %new.isnull.i, label %new.cont.thread.i, label %new.notnull.i

new.cont.thread.i:                                ; preds = %if.then4.i
  store ptr null, ptr @_ZL23gLanguageBreakFactories, align 8
  br label %_ZN6icu_75L21initLanguageFactoriesER10UErrorCode.exit

new.notnull.i:                                    ; preds = %if.then4.i
  invoke void @_ZN6icu_756UStackC1EPFvPvEPFa8UElementS4_ER10UErrorCode(ptr noundef nonnull align 8 dereferenceable(40) %call.i, ptr noundef nonnull @_ZL14_deleteFactoryPv, ptr noundef null, ptr noundef nonnull align 4 dereferenceable(4) %status)
          to label %land.lhs.true.i1 unwind label %lpad.i

land.lhs.true.i1:                                 ; preds = %new.notnull.i
  store ptr %call.i, ptr @_ZL23gLanguageBreakFactories, align 8
  %2 = load i32, ptr %status, align 4
  %cmp.i.i2 = icmp sgt i32 %2, 0
  br i1 %cmp.i.i2, label %_ZN6icu_75L21initLanguageFactoriesER10UErrorCode.exit, label %if.then.i

if.then.i:                                        ; preds = %land.lhs.true.i1
  %call2.i3 = tail call noundef ptr @_ZN6icu_757UMemorynwEm(i64 noundef 16) #15
  %new.isnull3.i = icmp eq ptr %call2.i3, null
  br i1 %new.isnull3.i, label %new.cont11.i, label %new.notnull4.i

new.notnull4.i:                                   ; preds = %if.then.i
  invoke void @_ZN6icu_7523ICULanguageBreakFactoryC1ER10UErrorCode(ptr noundef nonnull align 8 dereferenceable(16) %call2.i3, ptr noundef nonnull align 4 dereferenceable(4) %status)
          to label %_ZN6icu_7512LocalPointerINS_23ICULanguageBreakFactoryEEC2EPS1_R10UErrorCode.exit.i unwind label %lpad6.i

new.cont11.i:                                     ; preds = %if.then.i
  %3 = load i32, ptr %status, align 4
  %cmp.i.i.i = icmp sgt i32 %3, 0
  br i1 %cmp.i.i.i, label %_ZN6icu_75L21initLanguageFactoriesER10UErrorCode.exit, label %if.then.i.i

if.then.i.i:                                      ; preds = %new.cont11.i
  store i32 7, ptr %status, align 4
  br label %_ZN6icu_75L21initLanguageFactoriesER10UErrorCode.exit

_ZN6icu_7512LocalPointerINS_23ICULanguageBreakFactoryEEC2EPS1_R10UErrorCode.exit.i: ; preds = %new.notnull4.i
  %.pre.i = load i32, ptr %status, align 4
  %4 = icmp sgt i32 %.pre.i, 0
  br i1 %4, label %delete.notnull.i13.i, label %if.then14.i

if.then14.i:                                      ; preds = %_ZN6icu_7512LocalPointerINS_23ICULanguageBreakFactoryEEC2EPS1_R10UErrorCode.exit.i
  store ptr %call2.i3, ptr @_ZL24gICULanguageBreakFactory, align 8
  %5 = load ptr, ptr @_ZL23gLanguageBreakFactories, align 8
  %deleter.i.i.i = getelementptr inbounds i8, ptr %5, i64 24
  %6 = load ptr, ptr %deleter.i.i.i, align 8
  %cmp.i.not.i.i = icmp eq ptr %6, null
  br i1 %cmp.i.not.i.i, label %if.else.i.i, label %if.then.i10.i

if.then.i10.i:                                    ; preds = %if.then14.i
  tail call void @_ZN6icu_757UVector12adoptElementEPvR10UErrorCode(ptr noundef nonnull align 8 dereferenceable(40) %5, ptr noundef nonnull %call2.i3, ptr noundef nonnull align 4 dereferenceable(4) %status)
  br label %_ZN6icu_75L21initLanguageFactoriesER10UErrorCode.exit

if.else.i.i:                                      ; preds = %if.then14.i
  tail call void @_ZN6icu_757UVector10addElementEPvR10UErrorCode(ptr noundef nonnull align 8 dereferenceable(40) %5, ptr noundef nonnull %call2.i3, ptr noundef nonnull align 4 dereferenceable(4) %status)
  br label %_ZN6icu_75L21initLanguageFactoriesER10UErrorCode.exit

lpad.i:                                           ; preds = %new.notnull.i
  %7 = landingpad { ptr, i32 }
          cleanup
  br label %eh.resume.i

lpad6.i:                                          ; preds = %new.notnull4.i
  %8 = landingpad { ptr, i32 }
          cleanup
  br label %eh.resume.i

delete.notnull.i13.i:                             ; preds = %_ZN6icu_7512LocalPointerINS_23ICULanguageBreakFactoryEEC2EPS1_R10UErrorCode.exit.i
  %vtable.i14.i = load ptr, ptr %call2.i3, align 8
  %vfn.i15.i = getelementptr inbounds i8, ptr %vtable.i14.i, i64 8
  %9 = load ptr, ptr %vfn.i15.i, align 8
  tail call void %9(ptr noundef nonnull align 8 dereferenceable(16) %call2.i3) #15
  br label %_ZN6icu_75L21initLanguageFactoriesER10UErrorCode.exit

eh.resume.i:                                      ; preds = %lpad6.i, %lpad.i
  %call2.sink.i = phi ptr [ %call2.i3, %lpad6.i ], [ %call.i, %lpad.i ]
  %.pn.i = phi { ptr, i32 } [ %8, %lpad6.i ], [ %7, %lpad.i ]
  tail call void @_ZN6icu_757UMemorydlEPv(ptr noundef nonnull %call2.sink.i) #15
  resume { ptr, i32 } %.pn.i

_ZN6icu_75L21initLanguageFactoriesER10UErrorCode.exit: ; preds = %new.cont.thread.i, %land.lhs.true.i1, %new.cont11.i, %if.then.i.i, %if.then.i10.i, %if.else.i.i, %delete.notnull.i13.i
  tail call void @ucln_common_registerCleanup_75(i32 noundef 3, ptr noundef nonnull @rbbi_cleanup_75)
  %10 = load i32, ptr %status, align 4
  store i32 %10, ptr getelementptr inbounds ({ { i32 }, i32 }, ptr @_ZL31gLanguageBreakFactoriesInitOnce, i64 0, i32 1), align 4
  tail call void @_ZN6icu_7521umtx_initImplPostInitERNS_9UInitOnceE(ptr noundef nonnull align 4 dereferenceable(8) @_ZL31gLanguageBreakFactoriesInitOnce)
  br label %_ZN6icu_7513umtx_initOnceERNS_9UInitOnceEPFvR10UErrorCodeES3_.exit

if.else.i:                                        ; preds = %land.lhs.true.i, %if.end.i
  %11 = load i32, ptr getelementptr inbounds ({ { i32 }, i32 }, ptr @_ZL31gLanguageBreakFactoriesInitOnce, i64 0, i32 1), align 4
  %cmp.i9.i = icmp slt i32 %11, 1
  br i1 %cmp.i9.i, label %_ZN6icu_7513umtx_initOnceERNS_9UInitOnceEPFvR10UErrorCodeES3_.exit, label %if.then8.i

if.then8.i:                                       ; preds = %if.else.i
  store i32 %11, ptr %status, align 4
  br label %_ZN6icu_7513umtx_initOnceERNS_9UInitOnceEPFvR10UErrorCodeES3_.exit

_ZN6icu_7513umtx_initOnceERNS_9UInitOnceEPFvR10UErrorCodeES3_.exit: ; preds = %entry, %_ZN6icu_75L21initLanguageFactoriesER10UErrorCode.exit, %if.else.i, %if.then8.i
  ret void
}